target datalayout = "e-m:e-p270:32:32-p271:32:32-p272:64:64-i64:64-i128:128-f80:128-n8:16:32:64-S128"
target triple = "x86_64-pc-linux-gnu"

; Function Attrs: nounwind uwtable
define hidden ptr @cdf_u16tos8(ptr noundef %0, i64 noundef %1, ptr noundef %2) #0 {
  %4 = alloca ptr, align 8
  %5 = alloca i64, align 8
  %6 = alloca ptr, align 8
  %7 = alloca i64, align 8
  store ptr %0, ptr %4, align 8, !tbaa !9
  store i64 %1, ptr %5, align 8, !tbaa !14
  store ptr %2, ptr %6, align 8, !tbaa !61
  call void @llvm.lifetime.start.p0(i64 8, ptr %7) #13
  store i64 0, ptr %7, align 8, !tbaa !14
  br label %8

8:                                                ; preds = %30, %3
  %9 = load i64, ptr %7, align 8, !tbaa !14
  %10 = load i64, ptr %5, align 8, !tbaa !14
  %11 = icmp ult i64 %9, %10
  br i1 %11, label %12, label %19

12:                                               ; preds = %8
  %13 = load ptr, ptr %6, align 8, !tbaa !61
  %14 = load i64, ptr %7, align 8, !tbaa !14
  %15 = getelementptr inbounds nuw i16, ptr %13, i64 %14
  %16 = load i16, ptr %15, align 2, !tbaa !4
  %17 = zext i16 %16 to i32
  %18 = icmp ne i32 %17, 0
  br label %19

19:                                               ; preds = %12, %8
  %20 = phi i1 [ false, %8 ], [ %18, %12 ]
  br i1 %20, label %21, label %33

21:                                               ; preds = %19
  %22 = load ptr, ptr %6, align 8, !tbaa !61
  %23 = load i64, ptr %7, align 8, !tbaa !14
  %24 = getelementptr inbounds nuw i16, ptr %22, i64 %23
  %25 = load i16, ptr %24, align 2, !tbaa !4
  %26 = trunc i16 %25 to i8
  %27 = load ptr, ptr %4, align 8, !tbaa !9
  %28 = load i64, ptr %7, align 8, !tbaa !14
  %29 = getelementptr inbounds nuw i8, ptr %27, i64 %28
  store i8 %26, ptr %29, align 1, !tbaa !8
  br label %30

30:                                               ; preds = %21
  %31 = load i64, ptr %7, align 8, !tbaa !14
  %32 = add i64 %31, 1
  store i64 %32, ptr %7, align 8, !tbaa !14
  br label %8

33:                                               ; preds = %19
  %34 = load ptr, ptr %4, align 8, !tbaa !9
  %35 = load i64, ptr %7, align 8, !tbaa !14
  %36 = getelementptr inbounds nuw i8, ptr %34, i64 %35
  store i8 0, ptr %36, align 1, !tbaa !8
  %37 = load ptr, ptr %4, align 8, !tbaa !9
  call void @llvm.lifetime.end.p0(i64 8, ptr %7) #13
  ret ptr %37
}