; Function Attrs: nofree norecurse nosync nounwind memory(argmem: readwrite) uwtable
define hidden noundef ptr @cdf_u16tos8(ptr noundef returned writeonly captures(ret: address, provenance) %0, i64 noundef %1, ptr noundef readonly captures(none) %2) local_unnamed_addr #3 {
  %.not14 = icmp eq i64 %1, 0
  br i1 %.not14, label %.critedge, label %.lr.ph

.lr.ph:                                           ; preds = %3, %6
  %.011 = phi i64 [ %9, %6 ], [ 0, %3 ]
  %4 = getelementptr inbounds nuw i16, ptr %2, i64 %.011
  %5 = load i16, ptr %4, align 2, !tbaa !43
  %.not = icmp eq i16 %5, 0
  br i1 %.not, label %.critedge, label %6

6:                                                ; preds = %.lr.ph
  %7 = trunc i16 %5 to i8
  %8 = getelementptr inbounds nuw i8, ptr %0, i64 %.011
  store i8 %7, ptr %8, align 1, !tbaa !42
  %9 = add nuw i64 %.011, 1
  %exitcond.not = icmp eq i64 %9, %1
  br i1 %exitcond.not, label %.critedge, label %.lr.ph

.critedge:                                        ; preds = %.lr.ph, %6, %3
  %.0.lcssa = phi i64 [ 0, %3 ], [ %1, %6 ], [ %.011, %.lr.ph ]
  %10 = getelementptr inbounds nuw i8, ptr %0, i64 %.0.lcssa
  store i8 0, ptr %10, align 1, !tbaa !42
  ret ptr %0
}